target datalayout = "e-m:e-p270:32:32-p271:32:32-p272:64:64-i64:64-i128:128-f80:128-n8:16:32:64-S128"
target triple = "x86_64-pc-linux-gnu"

%struct.SDL_VideoData = type { ptr, ptr, i32, ptr, i64, i32, ptr, i32, i64, i64, %struct.X11_ClipboardData, %struct.X11_ClipboardData, ptr, i64, %struct.X11_SettingsData, i8, %struct.anon.1, [256 x i32], i8, i8, i8, i64, i8, %struct.SDL_Point, i32, ptr, i32, i8, i32, %struct.anon.2, i8, i64, ptr, ptr, i8, i8, i8 }
%struct.X11_ClipboardData = type { ptr, ptr, ptr, i64, i32 }
%struct.X11_SettingsData = type { ptr }
%struct.anon.1 = type { i64, i64, i64, i64, i64, i64, i64, i64, i64, i64, i64, i64, i64, i64, i64, i64, i64, i64, i64, i64, i64, i64, i64, i64, i64, i64, i64, i64, i64, i64, i64, i64, i64, i64, i64, i64, i64, i64, i64, i64, i64, i64, i64, i64, i64, i64, i64, i64, i64, i64, i64, i64, i64 }
%struct.SDL_Point = type { i32, i32 }
%struct.anon.2 = type { ptr, i32, i32, i32, i16, i32, i32 }

; Function Attrs: nounwind uwtable
define internal void @X11_ReconcileModifiers(ptr noundef %0) #0 {
  %2 = alloca ptr, align 8
  %3 = alloca i32, align 4
  store ptr %0, ptr %2, align 8
  call void @llvm.lifetime.start.p0(i64 4, ptr %3) #7
  %4 = load ptr, ptr %2, align 8
  %5 = getelementptr inbounds nuw %struct.SDL_VideoData, ptr %4, i32 0, i32 29
  %6 = getelementptr inbounds nuw %struct.anon.2, ptr %5, i32 0, i32 3
  %7 = load i32, ptr %6, align 8
  store i32 %7, ptr %3, align 4
  %8 = load i32, ptr %3, align 4
  %9 = and i32 %8, 1
  %10 = icmp ne i32 %9, 0
  br i1 %10, label %11, label %28

11:                                               ; preds = %1
  %12 = load ptr, ptr %2, align 8
  %13 = getelementptr inbounds nuw %struct.SDL_VideoData, ptr %12, i32 0, i32 29
  %14 = getelementptr inbounds nuw %struct.anon.2, ptr %13, i32 0, i32 4
  %15 = load i16, ptr %14, align 4
  %16 = zext i16 %15 to i32
  %17 = and i32 %16, 3
  %18 = icmp ne i32 %17, 0
  br i1 %18, label %27, label %19

19:                                               ; preds = %11
  %20 = load ptr, ptr %2, align 8
  %21 = getelementptr inbounds nuw %struct.SDL_VideoData, ptr %20, i32 0, i32 29
  %22 = getelementptr inbounds nuw %struct.anon.2, ptr %21, i32 0, i32 4
  %23 = load i16, ptr %22, align 4
  %24 = zext i16 %23 to i32
  %25 = or i32 %24, 3
  %26 = trunc i32 %25 to i16
  store i16 %26, ptr %22, align 4
  br label %27

27:                                               ; preds = %19, %11
  br label %36

28:                                               ; preds = %1
  %29 = load ptr, ptr %2, align 8
  %30 = getelementptr inbounds nuw %struct.SDL_VideoData, ptr %29, i32 0, i32 29
  %31 = getelementptr inbounds nuw %struct.anon.2, ptr %30, i32 0, i32 4
  %32 = load i16, ptr %31, align 4
  %33 = zext i16 %32 to i32
  %34 = and i32 %33, -4
  %35 = trunc i32 %34 to i16
  store i16 %35, ptr %31, align 4
  br label %36

36:                                               ; preds = %28, %27
  %37 = load i32, ptr %3, align 4
  %38 = and i32 %37, 4
  %39 = icmp ne i32 %38, 0
  br i1 %39, label %40, label %57

40:                                               ; preds = %36
  %41 = load ptr, ptr %2, align 8
  %42 = getelementptr inbounds nuw %struct.SDL_VideoData, ptr %41, i32 0, i32 29
  %43 = getelementptr inbounds nuw %struct.anon.2, ptr %42, i32 0, i32 4
  %44 = load i16, ptr %43, align 4
  %45 = zext i16 %44 to i32
  %46 = and i32 %45, 192
  %47 = icmp ne i32 %46, 0
  br i1 %47, label %56, label %48

48:                                               ; preds = %40
  %49 = load ptr, ptr %2, align 8
  %50 = getelementptr inbounds nuw %struct.SDL_VideoData, ptr %49, i32 0, i32 29
  %51 = getelementptr inbounds nuw %struct.anon.2, ptr %50, i32 0, i32 4
  %52 = load i16, ptr %51, align 4
  %53 = zext i16 %52 to i32
  %54 = or i32 %53, 192
  %55 = trunc i32 %54 to i16
  store i16 %55, ptr %51, align 4
  br label %56

56:                                               ; preds = %48, %40
  br label %65

57:                                               ; preds = %36
  %58 = load ptr, ptr %2, align 8
  %59 = getelementptr inbounds nuw %struct.SDL_VideoData, ptr %58, i32 0, i32 29
  %60 = getelementptr inbounds nuw %struct.anon.2, ptr %59, i32 0, i32 4
  %61 = load i16, ptr %60, align 4
  %62 = zext i16 %61 to i32
  %63 = and i32 %62, -193
  %64 = trunc i32 %63 to i16
  store i16 %64, ptr %60, align 4
  br label %65

65:                                               ; preds = %57, %56
  %66 = load i32, ptr %3, align 4
  %67 = and i32 %66, 8
  %68 = icmp ne i32 %67, 0
  br i1 %68, label %69, label %86

69:                                               ; preds = %65
  %70 = load ptr, ptr %2, align 8
  %71 = getelementptr inbounds nuw %struct.SDL_VideoData, ptr %70, i32 0, i32 29
  %72 = getelementptr inbounds nuw %struct.anon.2, ptr %71, i32 0, i32 4
  %73 = load i16, ptr %72, align 4
  %74 = zext i16 %73 to i32
  %75 = and i32 %74, 768
  %76 = icmp ne i32 %75, 0
  br i1 %76, label %85, label %77

77:                                               ; preds = %69
  %78 = load ptr, ptr %2, align 8
  %79 = getelementptr inbounds nuw %struct.SDL_VideoData, ptr %78, i32 0, i32 29
  %80 = getelementptr inbounds nuw %struct.anon.2, ptr %79, i32 0, i32 4
  %81 = load i16, ptr %80, align 4
  %82 = zext i16 %81 to i32
  %83 = or i32 %82, 768
  %84 = trunc i32 %83 to i16
  store i16 %84, ptr %80, align 4
  br label %85

85:                                               ; preds = %77, %69
  br label %94

86:                                               ; preds = %65
  %87 = load ptr, ptr %2, align 8
  %88 = getelementptr inbounds nuw %struct.SDL_VideoData, ptr %87, i32 0, i32 29
  %89 = getelementptr inbounds nuw %struct.anon.2, ptr %88, i32 0, i32 4
  %90 = load i16, ptr %89, align 4
  %91 = zext i16 %90 to i32
  %92 = and i32 %91, -769
  %93 = trunc i32 %92 to i16
  store i16 %93, ptr %89, align 4
  br label %94

94:                                               ; preds = %86, %85
  %95 = load i32, ptr %3, align 4
  %96 = and i32 %95, 64
  %97 = icmp ne i32 %96, 0
  br i1 %97, label %98, label %115

98:                                               ; preds = %94
  %99 = load ptr, ptr %2, align 8
  %100 = getelementptr inbounds nuw %struct.SDL_VideoData, ptr %99, i32 0, i32 29
  %101 = getelementptr inbounds nuw %struct.anon.2, ptr %100, i32 0, i32 4
  %102 = load i16, ptr %101, align 4
  %103 = zext i16 %102 to i32
  %104 = and i32 %103, 3072
  %105 = icmp ne i32 %104, 0
  br i1 %105, label %114, label %106

106:                                              ; preds = %98
  %107 = load ptr, ptr %2, align 8
  %108 = getelementptr inbounds nuw %struct.SDL_VideoData, ptr %107, i32 0, i32 29
  %109 = getelementptr inbounds nuw %struct.anon.2, ptr %108, i32 0, i32 4
  %110 = load i16, ptr %109, align 4
  %111 = zext i16 %110 to i32
  %112 = or i32 %111, 3072
  %113 = trunc i32 %112 to i16
  store i16 %113, ptr %109, align 4
  br label %114

114:                                              ; preds = %106, %98
  br label %123

115:                                              ; preds = %94
  %116 = load ptr, ptr %2, align 8
  %117 = getelementptr inbounds nuw %struct.SDL_VideoData, ptr %116, i32 0, i32 29
  %118 = getelementptr inbounds nuw %struct.anon.2, ptr %117, i32 0, i32 4
  %119 = load i16, ptr %118, align 4
  %120 = zext i16 %119 to i32
  %121 = and i32 %120, -3073
  %122 = trunc i32 %121 to i16
  store i16 %122, ptr %118, align 4
  br label %123

123:                                              ; preds = %115, %114
  %124 = load i32, ptr %3, align 4
  %125 = and i32 %124, 32
  %126 = icmp ne i32 %125, 0
  br i1 %126, label %127, label %135

127:                                              ; preds = %123
  %128 = load ptr, ptr %2, align 8
  %129 = getelementptr inbounds nuw %struct.SDL_VideoData, ptr %128, i32 0, i32 29
  %130 = getelementptr inbounds nuw %struct.anon.2, ptr %129, i32 0, i32 4
  %131 = load i16, ptr %130, align 4
  %132 = zext i16 %131 to i32
  %133 = or i32 %132, 4
  %134 = trunc i32 %133 to i16
  store i16 %134, ptr %130, align 4
  br label %143

135:                                              ; preds = %123
  %136 = load ptr, ptr %2, align 8
  %137 = getelementptr inbounds nuw %struct.SDL_VideoData, ptr %136, i32 0, i32 29
  %138 = getelementptr inbounds nuw %struct.anon.2, ptr %137, i32 0, i32 4
  %139 = load i16, ptr %138, align 4
  %140 = zext i16 %139 to i32
  %141 = and i32 %140, -5
  %142 = trunc i32 %141 to i16
  store i16 %142, ptr %138, align 4
  br label %143

143:                                              ; preds = %135, %127
  %144 = load i32, ptr %3, align 4
  %145 = and i32 %144, 128
  %146 = icmp ne i32 %145, 0
  br i1 %146, label %147, label %155

147:                                              ; preds = %143
  %148 = load ptr, ptr %2, align 8
  %149 = getelementptr inbounds nuw %struct.SDL_VideoData, ptr %148, i32 0, i32 29
  %150 = getelementptr inbounds nuw %struct.anon.2, ptr %149, i32 0, i32 4
  %151 = load i16, ptr %150, align 4
  %152 = zext i16 %151 to i32
  %153 = or i32 %152, 16384
  %154 = trunc i32 %153 to i16
  store i16 %154, ptr %150, align 4
  br label %163

155:                                              ; preds = %143
  %156 = load ptr, ptr %2, align 8
  %157 = getelementptr inbounds nuw %struct.SDL_VideoData, ptr %156, i32 0, i32 29
  %158 = getelementptr inbounds nuw %struct.anon.2, ptr %157, i32 0, i32 4
  %159 = load i16, ptr %158, align 4
  %160 = zext i16 %159 to i32
  %161 = and i32 %160, -16385
  %162 = trunc i32 %161 to i16
  store i16 %162, ptr %158, align 4
  br label %163

163:                                              ; preds = %155, %147
  %164 = load i32, ptr %3, align 4
  %165 = and i32 %164, 2
  %166 = icmp ne i32 %165, 0
  br i1 %166, label %167, label %175

167:                                              ; preds = %163
  %168 = load ptr, ptr %2, align 8
  %169 = getelementptr inbounds nuw %struct.SDL_VideoData, ptr %168, i32 0, i32 29
  %170 = getelementptr inbounds nuw %struct.anon.2, ptr %169, i32 0, i32 4
  %171 = load i16, ptr %170, align 4
  %172 = zext i16 %171 to i32
  %173 = or i32 %172, 8192
  %174 = trunc i32 %173 to i16
  store i16 %174, ptr %170, align 4
  br label %183

175:                                              ; preds = %163
  %176 = load ptr, ptr %2, align 8
  %177 = getelementptr inbounds nuw %struct.SDL_VideoData, ptr %176, i32 0, i32 29
  %178 = getelementptr inbounds nuw %struct.anon.2, ptr %177, i32 0, i32 4
  %179 = load i16, ptr %178, align 4
  %180 = zext i16 %179 to i32
  %181 = and i32 %180, -8193
  %182 = trunc i32 %181 to i16
  store i16 %182, ptr %178, align 4
  br label %183

183:                                              ; preds = %175, %167
  %184 = load i32, ptr %3, align 4
  %185 = load ptr, ptr %2, align 8
  %186 = getelementptr inbounds nuw %struct.SDL_VideoData, ptr %185, i32 0, i32 29
  %187 = getelementptr inbounds nuw %struct.anon.2, ptr %186, i32 0, i32 5
  %188 = load i32, ptr %187, align 8
  %189 = and i32 %184, %188
  %190 = icmp ne i32 %189, 0
  br i1 %190, label %191, label %199

191:                                              ; preds = %183
  %192 = load ptr, ptr %2, align 8
  %193 = getelementptr inbounds nuw %struct.SDL_VideoData, ptr %192, i32 0, i32 29
  %194 = getelementptr inbounds nuw %struct.anon.2, ptr %193, i32 0, i32 4
  %195 = load i16, ptr %194, align 4
  %196 = zext i16 %195 to i32
  %197 = or i32 %196, 4096
  %198 = trunc i32 %197 to i16
  store i16 %198, ptr %194, align 4
  br label %207

199:                                              ; preds = %183
  %200 = load ptr, ptr %2, align 8
  %201 = getelementptr inbounds nuw %struct.SDL_VideoData, ptr %200, i32 0, i32 29
  %202 = getelementptr inbounds nuw %struct.anon.2, ptr %201, i32 0, i32 4
  %203 = load i16, ptr %202, align 4
  %204 = zext i16 %203 to i32
  %205 = and i32 %204, -4097
  %206 = trunc i32 %205 to i16
  store i16 %206, ptr %202, align 4
  br label %207

207:                                              ; preds = %199, %191
  %208 = load i32, ptr %3, align 4
  %209 = load ptr, ptr %2, align 8
  %210 = getelementptr inbounds nuw %struct.SDL_VideoData, ptr %209, i32 0, i32 29
  %211 = getelementptr inbounds nuw %struct.anon.2, ptr %210, i32 0, i32 6
  %212 = load i32, ptr %211, align 4
  %213 = and i32 %208, %212
  %214 = icmp ne i32 %213, 0
  br i1 %214, label %215, label %223

215:                                              ; preds = %207
  %216 = load ptr, ptr %2, align 8
  %217 = getelementptr inbounds nuw %struct.SDL_VideoData, ptr %216, i32 0, i32 29
  %218 = getelementptr inbounds nuw %struct.anon.2, ptr %217, i32 0, i32 4
  %219 = load i16, ptr %218, align 4
  %220 = zext i16 %219 to i32
  %221 = or i32 %220, 32768
  %222 = trunc i32 %221 to i16
  store i16 %222, ptr %218, align 4
  br label %231

223:                                              ; preds = %207
  %224 = load ptr, ptr %2, align 8
  %225 = getelementptr inbounds nuw %struct.SDL_VideoData, ptr %224, i32 0, i32 29
  %226 = getelementptr inbounds nuw %struct.anon.2, ptr %225, i32 0, i32 4
  %227 = load i16, ptr %226, align 4
  %228 = zext i16 %227 to i32
  %229 = and i32 %228, -32769
  %230 = trunc i32 %229 to i16
  store i16 %230, ptr %226, align 4
  br label %231

231:                                              ; preds = %223, %215
  %232 = load ptr, ptr %2, align 8
  %233 = getelementptr inbounds nuw %struct.SDL_VideoData, ptr %232, i32 0, i32 29
  %234 = getelementptr inbounds nuw %struct.anon.2, ptr %233, i32 0, i32 4
  %235 = load i16, ptr %234, align 4
  call void @SDL_SetModState_REAL(i16 noundef zeroext %235)
  call void @llvm.lifetime.end.p0(i64 4, ptr %3) #7
  ret void
}