; Function Attrs: nounwind uwtable
define internal fastcc void @X11_ReconcileModifiers(ptr noundef captures(none) %0) unnamed_addr #1 {
  %2 = getelementptr inbounds nuw i8, ptr %0, i64 1712
  %3 = load i32, ptr %2, align 8
  %4 = and i32 %3, 1
  %.not = icmp eq i32 %4, 0
  %5 = getelementptr inbounds nuw i8, ptr %0, i64 1716
  %6 = load i16, ptr %5, align 4
  br i1 %.not, label %10, label %7

7:                                                ; preds = %1
  %8 = and i16 %6, 3
  %.not34 = icmp eq i16 %8, 0
  %9 = or disjoint i16 %6, 3
  %spec.select = select i1 %.not34, i16 %9, i16 %6
  br label %12

10:                                               ; preds = %1
  %11 = and i16 %6, -4
  br label %12

12:                                               ; preds = %7, %10
  %13 = phi i16 [ %11, %10 ], [ %spec.select, %7 ]
  %14 = and i32 %3, 4
  %.not35 = icmp eq i32 %14, 0
  br i1 %.not35, label %18, label %15

15:                                               ; preds = %12
  %16 = and i16 %13, 192
  %.not36 = icmp eq i16 %16, 0
  %17 = or disjoint i16 %13, 192
  %spec.select46 = select i1 %.not36, i16 %17, i16 %13
  br label %20

18:                                               ; preds = %12
  %19 = and i16 %13, -193
  br label %20

20:                                               ; preds = %15, %18
  %21 = phi i16 [ %19, %18 ], [ %spec.select46, %15 ]
  %22 = and i32 %3, 8
  %.not37 = icmp eq i32 %22, 0
  br i1 %.not37, label %26, label %23

23:                                               ; preds = %20
  %24 = and i16 %21, 768
  %.not38 = icmp eq i16 %24, 0
  %25 = or disjoint i16 %21, 768
  %spec.select47 = select i1 %.not38, i16 %25, i16 %21
  br label %28

26:                                               ; preds = %20
  %27 = and i16 %21, -769
  br label %28

28:                                               ; preds = %23, %26
  %29 = phi i16 [ %27, %26 ], [ %spec.select47, %23 ]
  %30 = and i32 %3, 64
  %.not39 = icmp eq i32 %30, 0
  br i1 %.not39, label %34, label %31

31:                                               ; preds = %28
  %32 = and i16 %29, 3072
  %.not40 = icmp eq i16 %32, 0
  %33 = or disjoint i16 %29, 3072
  %spec.select48 = select i1 %.not40, i16 %33, i16 %29
  br label %36

34:                                               ; preds = %28
  %35 = and i16 %29, -3073
  br label %36

36:                                               ; preds = %31, %34
  %37 = phi i16 [ %35, %34 ], [ %spec.select48, %31 ]
  %38 = and i16 %37, 4091
  %39 = trunc i32 %3 to i16
  %40 = lshr i16 %39, 3
  %masksel = and i16 %40, 4
  %41 = or disjoint i16 %38, %masksel
  %42 = trunc i32 %3 to i16
  %43 = shl i16 %42, 7
  %masksel49 = and i16 %43, 16384
  %44 = or disjoint i16 %41, %masksel49
  %45 = trunc i32 %3 to i16
  %46 = shl i16 %45, 12
  %masksel50 = and i16 %46, 8192
  %47 = or disjoint i16 %44, %masksel50
  %48 = getelementptr inbounds nuw i8, ptr %0, i64 1720
  %49 = load i32, ptr %48, align 8
  %50 = and i32 %49, %3
  %.not44 = icmp eq i32 %50, 0
  %masksel51 = select i1 %.not44, i16 0, i16 4096
  %51 = or disjoint i16 %47, %masksel51
  %52 = getelementptr inbounds nuw i8, ptr %0, i64 1724
  %53 = load i32, ptr %52, align 4
  %54 = and i32 %53, %3
  %.not45 = icmp eq i32 %54, 0
  %55 = getelementptr inbounds nuw i8, ptr %0, i64 1716
  %masksel52 = select i1 %.not45, i16 0, i16 -32768
  %.sink = or disjoint i16 %51, %masksel52
  store i16 %.sink, ptr %55, align 4
  tail call void @SDL_SetModState_REAL(i16 noundef zeroext %.sink) #12
  ret void
}